; Function Attrs: mustprogress uwtable
define dso_local void @_ZN14cmUVPipeBuffer5resetEv(ptr noundef nonnull align 8 dereferenceable(104) %0) local_unnamed_addr #0 align 2 personality ptr @__gxx_personality_v0 {
  %2 = tail call noundef ptr @_ZNK2cm19uv_handle_ptr_base_I9uv_pipe_sE3getEv(ptr noundef nonnull align 8 dereferenceable(16) %0)
  %.not = icmp eq ptr %2, null
  br i1 %.not, label %32, label %3

3:                                                ; preds = %1
  %4 = getelementptr inbounds i8, ptr %0, i64 88
  %5 = load ptr, ptr %4, align 8
  %.not.i = icmp eq ptr %5, null
  br i1 %.not.i, label %_ZNSt8functionIFvlEEaSEDn.exit, label %6

6:                                                ; preds = %3
  %7 = getelementptr inbounds i8, ptr %0, i64 72
  %8 = invoke noundef zeroext i1 %5(ptr noundef nonnull align 8 dereferenceable(16) %7, ptr noundef nonnull align 8 dereferenceable(16) %7, i32 noundef 3)
          to label %9 unwind label %10

9:                                                ; preds = %6
  tail call void @llvm.memset.p0.i64(ptr noundef nonnull align 8 dereferenceable(16) %4, i8 0, i64 16, i1 false)
  br label %_ZNSt8functionIFvlEEaSEDn.exit

10:                                               ; preds = %6
  %11 = landingpad { ptr, i32 }
          catch ptr null
  %12 = extractvalue { ptr, i32 } %11, 0
  tail call void @__clang_call_terminate(ptr %12) #19
  unreachable

_ZNSt8functionIFvlEEaSEDn.exit:                   ; preds = %3, %9
  %13 = getelementptr inbounds i8, ptr %0, i64 56
  %14 = load ptr, ptr %13, align 8
  %.not.i1 = icmp eq ptr %14, null
  br i1 %.not.i1, label %_ZNSt8functionIFv7cmRangeIPKcEEEaSEDn.exit, label %15

15:                                               ; preds = %_ZNSt8functionIFvlEEaSEDn.exit
  %16 = getelementptr inbounds i8, ptr %0, i64 40
  %17 = invoke noundef zeroext i1 %14(ptr noundef nonnull align 8 dereferenceable(16) %16, ptr noundef nonnull align 8 dereferenceable(16) %16, i32 noundef 3)
          to label %18 unwind label %19

18:                                               ; preds = %15
  tail call void @llvm.memset.p0.i64(ptr noundef nonnull align 8 dereferenceable(16) %13, i8 0, i64 16, i1 false)
  br label %_ZNSt8functionIFv7cmRangeIPKcEEEaSEDn.exit

19:                                               ; preds = %15
  %20 = landingpad { ptr, i32 }
          catch ptr null
  %21 = extractvalue { ptr, i32 } %20, 0
  tail call void @__clang_call_terminate(ptr %21) #19
  unreachable

_ZNSt8functionIFv7cmRangeIPKcEEEaSEDn.exit:       ; preds = %_ZNSt8functionIFvlEEaSEDn.exit, %18
  %22 = getelementptr inbounds i8, ptr %0, i64 16
  %23 = load ptr, ptr %22, align 8
  %24 = getelementptr inbounds i8, ptr %0, i64 24
  %25 = load ptr, ptr %24, align 8
  %.not.i.i = icmp eq ptr %25, %23
  br i1 %.not.i.i, label %_ZNSt6vectorIcSaIcEE5clearEv.exit, label %26

26:                                               ; preds = %_ZNSt8functionIFv7cmRangeIPKcEEEaSEDn.exit
  store ptr %23, ptr %24, align 8
  br label %_ZNSt6vectorIcSaIcEE5clearEv.exit

_ZNSt6vectorIcSaIcEE5clearEv.exit:                ; preds = %_ZNSt8functionIFv7cmRangeIPKcEEEaSEDn.exit, %26
  %27 = getelementptr inbounds i8, ptr %0, i64 32
  %28 = load ptr, ptr %27, align 8
  %29 = icmp eq ptr %28, %23
  br i1 %29, label %_ZNSt6vectorIcSaIcEE13shrink_to_fitEv.exit, label %30

30:                                               ; preds = %_ZNSt6vectorIcSaIcEE5clearEv.exit
  %31 = tail call noundef zeroext i1 @_ZNSt19__shrink_to_fit_auxISt6vectorIcSaIcEELb1EE8_S_do_itERS2_(ptr noundef nonnull align 8 dereferenceable(24) %22) #20
  br label %_ZNSt6vectorIcSaIcEE13shrink_to_fitEv.exit

_ZNSt6vectorIcSaIcEE13shrink_to_fitEv.exit:       ; preds = %_ZNSt6vectorIcSaIcEE5clearEv.exit, %30
  tail call void @_ZN2cm19uv_handle_ptr_base_I9uv_pipe_sE5resetEv(ptr noundef nonnull align 8 dereferenceable(16) %0)
  br label %32

32:                                               ; preds = %_ZNSt6vectorIcSaIcEE13shrink_to_fitEv.exit, %1
  ret void
}